; Function Attrs: nofree norecurse nosync nounwind memory(argmem: readwrite) uwtable
define internal void @horizontal_compose_dirac53i_12bit(ptr noundef captures(none) %0, ptr noundef captures(none) initializes((0, 4)) %1, i32 noundef %2) #3 {
  %4 = ashr i32 %2, 1
  %5 = load i32, ptr %0, align 4, !tbaa !70
  %6 = sext i32 %4 to i64
  %7 = getelementptr inbounds i32, ptr %0, i64 %6
  %8 = load i32, ptr %7, align 4, !tbaa !70
  %9 = shl i32 %8, 1
  %10 = add i32 %9, 2
  %11 = ashr i32 %10, 2
  %12 = sub i32 %5, %11
  store i32 %12, ptr %1, align 4, !tbaa !70
  %13 = icmp sgt i32 %4, 1
  br i1 %13, label %.lr.ph.preheader, label %._crit_edge

.lr.ph.preheader:                                 ; preds = %3
  %invariant.op = add nsw i32 %4, -1
  %14 = zext nneg i32 %invariant.op to i64
  %wide.trip.count = zext nneg i32 %4 to i64
  %invariant.gep = getelementptr i32, ptr %0, i64 %6
  br label %.lr.ph

.lr.ph:                                           ; preds = %.lr.ph.preheader, %.lr.ph
  %indvars.iv = phi i64 [ 1, %.lr.ph.preheader ], [ %indvars.iv.next, %.lr.ph ]
  %15 = getelementptr inbounds nuw i32, ptr %0, i64 %indvars.iv
  %16 = load i32, ptr %15, align 4, !tbaa !70
  %17 = add nuw nsw i64 %indvars.iv, %14
  %18 = getelementptr inbounds nuw i32, ptr %0, i64 %17
  %19 = load i32, ptr %18, align 4, !tbaa !70
  %gep = getelementptr i32, ptr %invariant.gep, i64 %indvars.iv
  %20 = load i32, ptr %gep, align 4, !tbaa !70
  %21 = add i32 %19, 2
  %22 = add i32 %21, %20
  %23 = ashr i32 %22, 2
  %24 = sub i32 %16, %23
  %25 = getelementptr inbounds nuw i32, ptr %1, i64 %indvars.iv
  store i32 %24, ptr %25, align 4, !tbaa !70
  %26 = load i32, ptr %18, align 4, !tbaa !70
  %27 = getelementptr i8, ptr %25, i64 -4
  %28 = load i32, ptr %27, align 4, !tbaa !70
  %29 = add i32 %24, 1
  %30 = add i32 %29, %28
  %31 = ashr i32 %30, 1
  %32 = add i32 %31, %26
  %33 = getelementptr inbounds nuw i32, ptr %1, i64 %17
  store i32 %32, ptr %33, align 4, !tbaa !70
  %indvars.iv.next = add nuw nsw i64 %indvars.iv, 1
  %exitcond.not = icmp eq i64 %indvars.iv.next, %wide.trip.count
  br i1 %exitcond.not, label %._crit_edge, label %.lr.ph, !llvm.loop !105

._crit_edge:                                      ; preds = %.lr.ph, %3
  %34 = add nsw i32 %2, -1
  %35 = sext i32 %34 to i64
  %36 = getelementptr inbounds i32, ptr %0, i64 %35
  %37 = load i32, ptr %36, align 4, !tbaa !70
  %38 = getelementptr i32, ptr %1, i64 %6
  %39 = getelementptr i8, ptr %38, i64 -4
  %40 = load i32, ptr %39, align 4, !tbaa !70
  %41 = shl i32 %40, 1
  %42 = ashr exact i32 %41, 1
  %43 = add i32 %42, %37
  %44 = getelementptr inbounds i32, ptr %1, i64 %35
  store i32 %43, ptr %44, align 4, !tbaa !70
  %45 = icmp sgt i32 %4, 0
  br i1 %45, label %.lr.ph48.preheader, label %interleave_12bit.exit

.lr.ph48.preheader:                               ; preds = %._crit_edge
  %wide.trip.count54 = zext nneg i32 %4 to i64
  br label %.lr.ph48

.lr.ph48:                                         ; preds = %.lr.ph48.preheader, %.lr.ph48
  %indvars.iv51 = phi i64 [ 0, %.lr.ph48.preheader ], [ %indvars.iv.next52, %.lr.ph48 ]
  %46 = getelementptr inbounds nuw i32, ptr %1, i64 %indvars.iv51
  %47 = load i32, ptr %46, align 4, !tbaa !70
  %48 = add i32 %47, 1
  %49 = ashr i32 %48, 1
  %.idx = shl nuw nsw i64 %indvars.iv51, 3
  %50 = getelementptr inbounds nuw i8, ptr %0, i64 %.idx
  store i32 %49, ptr %50, align 4, !tbaa !70
  %51 = getelementptr inbounds nuw i32, ptr %38, i64 %indvars.iv51
  %52 = load i32, ptr %51, align 4, !tbaa !70
  %53 = add i32 %52, 1
  %54 = ashr i32 %53, 1
  %55 = getelementptr inbounds nuw i8, ptr %50, i64 4
  store i32 %54, ptr %55, align 4, !tbaa !70
  %indvars.iv.next52 = add nuw nsw i64 %indvars.iv51, 1
  %exitcond55.not = icmp eq i64 %indvars.iv.next52, %wide.trip.count54
  br i1 %exitcond55.not, label %interleave_12bit.exit, label %.lr.ph48, !llvm.loop !106

interleave_12bit.exit:                            ; preds = %.lr.ph48, %._crit_edge
  ret void
}